target datalayout = "e-m:e-p270:32:32-p271:32:32-p272:64:64-i64:64-i128:128-f80:128-n8:16:32:64-S128"
target triple = "x86_64-pc-linux-gnu"

%"struct.vcg::GLMeshAttributesInfo::ATT_NAMES" = type { i32 }
%"class.vcg::GLMeshAttributesInfo::RenderingAtts" = type { [7 x i8] }
%"class.vcg::PerViewData" = type { %"class.std::bitset", %"class.std::vector.16", ptr }
%"class.std::bitset" = type { %"struct.std::_Base_bitset" }
%"struct.std::_Base_bitset" = type { i64 }
%"class.std::vector.16" = type { %"struct.std::_Vector_base.17" }
%"struct.std::_Vector_base.17" = type { %"struct.std::_Vector_base<vcg::GLMeshAttributesInfo::InternalRendAtts, std::allocator<vcg::GLMeshAttributesInfo::InternalRendAtts>>::_Vector_impl" }
%"struct.std::_Vector_base<vcg::GLMeshAttributesInfo::InternalRendAtts, std::allocator<vcg::GLMeshAttributesInfo::InternalRendAtts>>::_Vector_impl" = type { %"struct.std::_Vector_base<vcg::GLMeshAttributesInfo::InternalRendAtts, std::allocator<vcg::GLMeshAttributesInfo::InternalRendAtts>>::_Vector_impl_data" }
%"struct.std::_Vector_base<vcg::GLMeshAttributesInfo::InternalRendAtts, std::allocator<vcg::GLMeshAttributesInfo::InternalRendAtts>>::_Vector_impl_data" = type { ptr, ptr, ptr }
%"class.vcg::GLMeshAttributesInfo::InternalRendAtts" = type { %"class.vcg::GLMeshAttributesInfo::RenderingAtts.21" }
%"class.vcg::GLMeshAttributesInfo::RenderingAtts.21" = type { [9 x i8] }

@.str.6 = private unnamed_addr constant [20 x i8] c"Out of range value\0A\00", align 1
@_ZTIN3vcg20GLMeshAttributesInfo9ExceptionE = linkonce_odr constant { ptr, ptr, ptr } { ptr getelementptr inbounds (ptr, ptr @_ZTVN10__cxxabiv120__si_class_type_infoE, i64 2), ptr @_ZTSN3vcg20GLMeshAttributesInfo9ExceptionE, ptr @_ZTISt9exception }, comdat, align 8

; Function Attrs: mustprogress uwtable
define linkonce_odr noundef zeroext i1 @_ZNK3vcg20GLMeshAttributesInfo13RenderingAttsINS0_9ATT_NAMESEEixEj(ptr noundef nonnull align 1 dereferenceable(7) %0, i32 noundef %1) #5 comdat align 2 personality ptr @__gxx_personality_v0 {
  %3 = alloca ptr, align 8
  %4 = alloca i32, align 4
  %5 = alloca ptr, align 8
  %6 = alloca i32, align 4
  store ptr %0, ptr %3, align 8
  store i32 %1, ptr %4, align 4
  %7 = load ptr, ptr %3, align 8
  %8 = load i32, ptr %4, align 4
  %9 = call noundef i32 @_ZN3vcg20GLMeshAttributesInfo9ATT_NAMES9enumArityEv()
  %10 = icmp uge i32 %8, %9
  br i1 %10, label %11, label %18

11:                                               ; preds = %2
  %12 = call ptr @__cxa_allocate_exception(i64 40) #3
  invoke void @_ZN3vcg20GLMeshAttributesInfo9ExceptionC2EPKc(ptr noundef nonnull align 8 dereferenceable(40) %12, ptr noundef @.str.6)
          to label %13 unwind label %14

13:                                               ; preds = %11
  call void @__cxa_throw(ptr %12, ptr @_ZTIN3vcg20GLMeshAttributesInfo9ExceptionE, ptr @_ZN3vcg20GLMeshAttributesInfo9ExceptionD2Ev) #14
  unreachable

14:                                               ; preds = %11
  %15 = landingpad { ptr, i32 }
          cleanup
  %16 = extractvalue { ptr, i32 } %15, 0
  store ptr %16, ptr %5, align 8
  %17 = extractvalue { ptr, i32 } %15, 1
  store i32 %17, ptr %6, align 4
  call void @__cxa_free_exception(ptr %12) #3
  br label %25

18:                                               ; preds = %2
  %19 = getelementptr inbounds %"class.vcg::GLMeshAttributesInfo::RenderingAtts", ptr %7, i32 0, i32 0
  %20 = load i32, ptr %4, align 4
  %21 = zext i32 %20 to i64
  %22 = getelementptr inbounds [7 x i8], ptr %19, i64 0, i64 %21
  %23 = load i8, ptr %22, align 1
  %24 = trunc i8 %23 to i1
  ret i1 %24

25:                                               ; preds = %14
  %26 = load ptr, ptr %5, align 8
  %27 = load i32, ptr %6, align 4
  %28 = insertvalue { ptr, i32 } poison, ptr %26, 0
  %29 = insertvalue { ptr, i32 } %28, i32 %27, 1
  resume { ptr, i32 } %29
}

; Function Attrs: mustprogress nounwind uwtable
define linkonce_odr noundef i32 @_ZN3vcg20GLMeshAttributesInfo9ATT_NAMES9enumArityEv() #4 comdat align 2 {
  ret i32 7
}

; Function Attrs: mustprogress uwtable
define linkonce_odr noundef nonnull align 1 dereferenceable(7) ptr @_ZN3vcg20GLMeshAttributesInfo13RenderingAttsINS0_9ATT_NAMESEEaSERKS3_(ptr noundef nonnull align 1 dereferenceable(7) %0, ptr noundef nonnull align 1 dereferenceable(7) %1) #5 comdat align 2 {
  %3 = alloca ptr, align 8
  %4 = alloca ptr, align 8
  %5 = alloca i32, align 4
  store ptr %0, ptr %3, align 8
  store ptr %1, ptr %4, align 8
  %6 = load ptr, ptr %3, align 8
  call void @_ZN3vcg20GLMeshAttributesInfo13RenderingAttsINS0_9ATT_NAMESEE5resetEb(ptr noundef nonnull align 1 dereferenceable(7) %6, i1 noundef zeroext false)
  store i32 0, ptr %5, align 4
  br label %7

7:                                                ; preds = %18, %2
  %8 = load i32, ptr %5, align 4
  %9 = call noundef i32 @_ZN3vcg20GLMeshAttributesInfo9ATT_NAMES9enumArityEv()
  %10 = icmp ult i32 %8, %9
  br i1 %10, label %11, label %21

11:                                               ; preds = %7
  %12 = load ptr, ptr %4, align 8
  %13 = load i32, ptr %5, align 4
  %14 = call noundef zeroext i1 @_ZNK3vcg20GLMeshAttributesInfo13RenderingAttsINS0_9ATT_NAMESEEixEj(ptr noundef nonnull align 1 dereferenceable(7) %12, i32 noundef %13)
  %15 = load i32, ptr %5, align 4
  %16 = call noundef nonnull align 1 dereferenceable(1) ptr @_ZN3vcg20GLMeshAttributesInfo13RenderingAttsINS0_9ATT_NAMESEEixEj(ptr noundef nonnull align 1 dereferenceable(7) %6, i32 noundef %15)
  %17 = zext i1 %14 to i8
  store i8 %17, ptr %16, align 1
  br label %18

18:                                               ; preds = %11
  %19 = load i32, ptr %5, align 4
  %20 = add i32 %19, 1
  store i32 %20, ptr %5, align 4
  br label %7, !llvm.loop !13

21:                                               ; preds = %7
  ret ptr %6
}

; Function Attrs: mustprogress uwtable
define linkonce_odr void @_ZNK3vcg20GLMeshAttributesInfo16InternalRendAttscvNS0_13RenderingAttsINS0_9ATT_NAMESEEEEv(ptr dead_on_unwind noalias writable sret(%"class.vcg::GLMeshAttributesInfo::RenderingAtts") align 1 %0, ptr noundef nonnull align 1 dereferenceable(9) %1) #5 comdat align 2 personality ptr @__gxx_personality_v0 {
  %3 = alloca ptr, align 8
  %4 = alloca ptr, align 8
  %5 = alloca i1, align 1
  %6 = alloca i32, align 4
  %7 = alloca ptr, align 8
  %8 = alloca i32, align 4
  store ptr %0, ptr %3, align 8
  store ptr %1, ptr %4, align 8
  %9 = load ptr, ptr %4, align 8
  store i1 false, ptr %5, align 1
  call void @_ZN3vcg20GLMeshAttributesInfo13RenderingAttsINS0_9ATT_NAMESEEC2Eb(ptr noundef nonnull align 1 dereferenceable(7) %0, i1 noundef zeroext false)
  store i32 0, ptr %6, align 4
  br label %10

10:                                               ; preds = %25, %2
  %11 = load i32, ptr %6, align 4
  %12 = call noundef i32 @_ZN3vcg20GLMeshAttributesInfo9ATT_NAMES9enumArityEv()
  %13 = icmp ult i32 %11, %12
  br i1 %13, label %14, label %32

14:                                               ; preds = %10
  %15 = getelementptr inbounds %"class.vcg::GLMeshAttributesInfo::RenderingAtts.21", ptr %9, i32 0, i32 0
  %16 = load i32, ptr %6, align 4
  %17 = zext i32 %16 to i64
  %18 = getelementptr inbounds [9 x i8], ptr %15, i64 0, i64 %17
  %19 = load i8, ptr %18, align 1
  %20 = trunc i8 %19 to i1
  %21 = load i32, ptr %6, align 4
  %22 = invoke noundef nonnull align 1 dereferenceable(1) ptr @_ZN3vcg20GLMeshAttributesInfo13RenderingAttsINS0_9ATT_NAMESEEixEj(ptr noundef nonnull align 1 dereferenceable(7) %0, i32 noundef %21)
          to label %23 unwind label %28

23:                                               ; preds = %14
  %24 = zext i1 %20 to i8
  store i8 %24, ptr %22, align 1
  br label %25

25:                                               ; preds = %23
  %26 = load i32, ptr %6, align 4
  %27 = add i32 %26, 1
  store i32 %27, ptr %6, align 4
  br label %10, !llvm.loop !12

28:                                               ; preds = %14
  %29 = landingpad { ptr, i32 }
          cleanup
  %30 = extractvalue { ptr, i32 } %29, 0
  store ptr %30, ptr %7, align 8
  %31 = extractvalue { ptr, i32 } %29, 1
  store i32 %31, ptr %8, align 4
  call void @_ZN3vcg20GLMeshAttributesInfo13RenderingAttsINS0_9ATT_NAMESEED2Ev(ptr noundef nonnull align 1 dereferenceable(7) %0) #3
  br label %36

32:                                               ; preds = %10
  store i1 true, ptr %5, align 1
  %33 = load i1, ptr %5, align 1
  br i1 %33, label %35, label %34

34:                                               ; preds = %32
  call void @_ZN3vcg20GLMeshAttributesInfo13RenderingAttsINS0_9ATT_NAMESEED2Ev(ptr noundef nonnull align 1 dereferenceable(7) %0) #3
  br label %35

35:                                               ; preds = %34, %32
  ret void

36:                                               ; preds = %28
  %37 = load ptr, ptr %7, align 8
  %38 = load i32, ptr %8, align 4
  %39 = insertvalue { ptr, i32 } poison, ptr %37, 0
  %40 = insertvalue { ptr, i32 } %39, i32 %38, 1
  resume { ptr, i32 } %40
}

; Function Attrs: mustprogress nounwind uwtable
define linkonce_odr noundef nonnull align 1 dereferenceable(9) ptr @_ZNKSt6vectorIN3vcg20GLMeshAttributesInfo16InternalRendAttsESaIS2_EEixEm(ptr noundef nonnull align 8 dereferenceable(24) %0, i64 noundef %1) #4 comdat align 2 {
  %3 = alloca ptr, align 8
  %4 = alloca i64, align 8
  store ptr %0, ptr %3, align 8
  store i64 %1, ptr %4, align 8
  %5 = load ptr, ptr %3, align 8
  %6 = getelementptr inbounds %"struct.std::_Vector_base.17", ptr %5, i32 0, i32 0
  %7 = getelementptr inbounds %"struct.std::_Vector_base<vcg::GLMeshAttributesInfo::InternalRendAtts, std::allocator<vcg::GLMeshAttributesInfo::InternalRendAtts>>::_Vector_impl_data", ptr %6, i32 0, i32 0
  %8 = load ptr, ptr %7, align 8
  %9 = load i64, ptr %4, align 8
  %10 = getelementptr inbounds %"class.vcg::GLMeshAttributesInfo::InternalRendAtts", ptr %8, i64 %9
  ret ptr %10
}

; Function Attrs: mustprogress nounwind uwtable
define linkonce_odr noundef i64 @_ZNKSt6vectorIN3vcg20GLMeshAttributesInfo16InternalRendAttsESaIS2_EE4sizeEv(ptr noundef nonnull align 8 dereferenceable(24) %0) #4 comdat align 2 {
  %2 = alloca ptr, align 8
  store ptr %0, ptr %2, align 8
  %3 = load ptr, ptr %2, align 8
  %4 = getelementptr inbounds %"struct.std::_Vector_base.17", ptr %3, i32 0, i32 0
  %5 = getelementptr inbounds %"struct.std::_Vector_base<vcg::GLMeshAttributesInfo::InternalRendAtts, std::allocator<vcg::GLMeshAttributesInfo::InternalRendAtts>>::_Vector_impl_data", ptr %4, i32 0, i32 1
  %6 = load ptr, ptr %5, align 8
  %7 = getelementptr inbounds %"struct.std::_Vector_base.17", ptr %3, i32 0, i32 0
  %8 = getelementptr inbounds %"struct.std::_Vector_base<vcg::GLMeshAttributesInfo::InternalRendAtts, std::allocator<vcg::GLMeshAttributesInfo::InternalRendAtts>>::_Vector_impl_data", ptr %7, i32 0, i32 0
  %9 = load ptr, ptr %8, align 8
  %10 = ptrtoint ptr %6 to i64
  %11 = ptrtoint ptr %9 to i64
  %12 = sub i64 %10, %11
  %13 = sdiv exact i64 %12, 9
  ret i64 %13
}

; Function Attrs: mustprogress uwtable
define linkonce_odr void @_ZN3vcg20GLMeshAttributesInfo13RenderingAttsINS0_9ATT_NAMESEE5resetEb(ptr noundef nonnull align 1 dereferenceable(7) %0, i1 noundef zeroext %1) #5 comdat align 2 {
  %3 = alloca ptr, align 8
  %4 = alloca i8, align 1
  %5 = alloca i32, align 4
  store ptr %0, ptr %3, align 8
  %6 = zext i1 %1 to i8
  store i8 %6, ptr %4, align 1
  %7 = load ptr, ptr %3, align 8
  store i32 0, ptr %5, align 4
  br label %8

8:                                                ; preds = %20, %2
  %9 = load i32, ptr %5, align 4
  %10 = call noundef i32 @_ZN3vcg20GLMeshAttributesInfo9ATT_NAMES9enumArityEv()
  %11 = icmp ult i32 %9, %10
  br i1 %11, label %12, label %23

12:                                               ; preds = %8
  %13 = load i8, ptr %4, align 1
  %14 = trunc i8 %13 to i1
  %15 = getelementptr inbounds %"class.vcg::GLMeshAttributesInfo::RenderingAtts", ptr %7, i32 0, i32 0
  %16 = load i32, ptr %5, align 4
  %17 = zext i32 %16 to i64
  %18 = getelementptr inbounds [7 x i8], ptr %15, i64 0, i64 %17
  %19 = zext i1 %14 to i8
  store i8 %19, ptr %18, align 1
  br label %20

20:                                               ; preds = %12
  %21 = load i32, ptr %5, align 4
  %22 = add i32 %21, 1
  store i32 %22, ptr %5, align 4
  br label %8, !llvm.loop !11

23:                                               ; preds = %8
  ret void
}

; Function Attrs: mustprogress nounwind uwtable
define linkonce_odr void @_ZN3vcg20GLMeshAttributesInfo13RenderingAttsINS0_9ATT_NAMESEED2Ev(ptr noundef nonnull align 1 dereferenceable(7) %0) unnamed_addr #4 comdat align 2 {
  %2 = alloca ptr, align 8
  store ptr %0, ptr %2, align 8
  ret void
}

; Function Attrs: mustprogress uwtable
define linkonce_odr noundef nonnull align 1 dereferenceable(1) ptr @_ZN3vcg20GLMeshAttributesInfo13RenderingAttsINS0_9ATT_NAMESEEixEj(ptr noundef nonnull align 1 dereferenceable(7) %0, i32 noundef %1) #5 comdat align 2 personality ptr @__gxx_personality_v0 {
  %3 = alloca ptr, align 8
  %4 = alloca i32, align 4
  %5 = alloca ptr, align 8
  %6 = alloca i32, align 4
  store ptr %0, ptr %3, align 8
  store i32 %1, ptr %4, align 4
  %7 = load ptr, ptr %3, align 8
  %8 = load i32, ptr %4, align 4
  %9 = call noundef i32 @_ZN3vcg20GLMeshAttributesInfo9ATT_NAMES9enumArityEv()
  %10 = icmp uge i32 %8, %9
  br i1 %10, label %11, label %18

11:                                               ; preds = %2
  %12 = call ptr @__cxa_allocate_exception(i64 40) #3
  invoke void @_ZN3vcg20GLMeshAttributesInfo9ExceptionC2EPKc(ptr noundef nonnull align 8 dereferenceable(40) %12, ptr noundef @.str.6)
          to label %13 unwind label %14

13:                                               ; preds = %11
  call void @__cxa_throw(ptr %12, ptr @_ZTIN3vcg20GLMeshAttributesInfo9ExceptionE, ptr @_ZN3vcg20GLMeshAttributesInfo9ExceptionD2Ev) #14
  unreachable

14:                                               ; preds = %11
  %15 = landingpad { ptr, i32 }
          cleanup
  %16 = extractvalue { ptr, i32 } %15, 0
  store ptr %16, ptr %5, align 8
  %17 = extractvalue { ptr, i32 } %15, 1
  store i32 %17, ptr %6, align 4
  call void @__cxa_free_exception(ptr %12) #3
  br label %23

18:                                               ; preds = %2
  %19 = getelementptr inbounds %"class.vcg::GLMeshAttributesInfo::RenderingAtts", ptr %7, i32 0, i32 0
  %20 = load i32, ptr %4, align 4
  %21 = zext i32 %20 to i64
  %22 = getelementptr inbounds [7 x i8], ptr %19, i64 0, i64 %21
  ret ptr %22

23:                                               ; preds = %14
  %24 = load ptr, ptr %5, align 8
  %25 = load i32, ptr %6, align 4
  %26 = insertvalue { ptr, i32 } poison, ptr %24, 0
  %27 = insertvalue { ptr, i32 } %26, i32 %25, 1
  resume { ptr, i32 } %27
}

; Function Attrs: mustprogress nounwind uwtable
define linkonce_odr noundef i32 @_ZNK3vcg20GLMeshAttributesInfo9ATT_NAMEScvjEv(ptr noundef nonnull align 4 dereferenceable(4) %0) #4 comdat align 2 {
  %2 = alloca ptr, align 8
  store ptr %0, ptr %2, align 8
  %3 = load ptr, ptr %2, align 8
  %4 = getelementptr inbounds %"struct.vcg::GLMeshAttributesInfo::ATT_NAMES", ptr %3, i32 0, i32 0
  %5 = load i32, ptr %4, align 4
  ret i32 %5
}

; Function Attrs: mustprogress uwtable
define linkonce_odr noundef zeroext i1 @_ZNK3vcg11PerViewDataI18MLPerViewGLOptionsE3getENS_20GLMeshAttributesInfo18PRIMITIVE_MODALITYERNS3_13RenderingAttsINS3_9ATT_NAMESEEE(ptr noundef nonnull align 8 dereferenceable(40) %0, i32 noundef %1, ptr noundef nonnull align 1 dereferenceable(7) %2) #5 comdat align 2 personality ptr @__gxx_personality_v0 {
  %4 = alloca i1, align 1
  %5 = alloca ptr, align 8
  %6 = alloca i32, align 4
  %7 = alloca ptr, align 8
  %8 = alloca i64, align 8
  %9 = alloca %"class.vcg::GLMeshAttributesInfo::RenderingAtts", align 1
  %10 = alloca ptr, align 8
  %11 = alloca i32, align 4
  store ptr %0, ptr %5, align 8
  store i32 %1, ptr %6, align 4
  store ptr %2, ptr %7, align 8
  %12 = load ptr, ptr %5, align 8
  %13 = load i32, ptr %6, align 4
  %14 = zext i32 %13 to i64
  store i64 %14, ptr %8, align 8
  %15 = load i32, ptr %6, align 4
  %16 = zext i32 %15 to i64
  %17 = getelementptr inbounds %"class.vcg::PerViewData", ptr %12, i32 0, i32 1
  %18 = call noundef i64 @_ZNKSt6vectorIN3vcg20GLMeshAttributesInfo16InternalRendAttsESaIS2_EE4sizeEv(ptr noundef nonnull align 8 dereferenceable(24) %17) #3
  %19 = icmp uge i64 %16, %18
  br i1 %19, label %20, label %21

20:                                               ; preds = %3
  store i1 false, ptr %4, align 1
  br label %32

21:                                               ; preds = %3
  %22 = getelementptr inbounds %"class.vcg::PerViewData", ptr %12, i32 0, i32 1
  %23 = load i64, ptr %8, align 8
  %24 = call noundef nonnull align 1 dereferenceable(9) ptr @_ZNKSt6vectorIN3vcg20GLMeshAttributesInfo16InternalRendAttsESaIS2_EEixEm(ptr noundef nonnull align 8 dereferenceable(24) %22, i64 noundef %23) #3
  call void @_ZNK3vcg20GLMeshAttributesInfo16InternalRendAttscvNS0_13RenderingAttsINS0_9ATT_NAMESEEEEv(ptr dead_on_unwind writable sret(%"class.vcg::GLMeshAttributesInfo::RenderingAtts") align 1 %9, ptr noundef nonnull align 1 dereferenceable(9) %24)
  %25 = load ptr, ptr %7, align 8
  %26 = invoke noundef nonnull align 1 dereferenceable(7) ptr @_ZN3vcg20GLMeshAttributesInfo13RenderingAttsINS0_9ATT_NAMESEEaSERKS3_(ptr noundef nonnull align 1 dereferenceable(7) %25, ptr noundef nonnull align 1 dereferenceable(7) %9)
          to label %27 unwind label %28

27:                                               ; preds = %21
  call void @_ZN3vcg20GLMeshAttributesInfo13RenderingAttsINS0_9ATT_NAMESEED2Ev(ptr noundef nonnull align 1 dereferenceable(7) %9) #3
  store i1 true, ptr %4, align 1
  br label %32

28:                                               ; preds = %21
  %29 = landingpad { ptr, i32 }
          cleanup
  %30 = extractvalue { ptr, i32 } %29, 0
  store ptr %30, ptr %10, align 8
  %31 = extractvalue { ptr, i32 } %29, 1
  store i32 %31, ptr %11, align 4
  call void @_ZN3vcg20GLMeshAttributesInfo13RenderingAttsINS0_9ATT_NAMESEED2Ev(ptr noundef nonnull align 1 dereferenceable(7) %9) #3
  br label %34

32:                                               ; preds = %27, %20
  %33 = load i1, ptr %4, align 1
  ret i1 %33

34:                                               ; preds = %28
  %35 = load ptr, ptr %10, align 8
  %36 = load i32, ptr %11, align 4
  %37 = insertvalue { ptr, i32 } poison, ptr %35, 0
  %38 = insertvalue { ptr, i32 } %37, i32 %36, 1
  resume { ptr, i32 } %38
}

; Function Attrs: mustprogress uwtable
define linkonce_odr void @_ZN3vcg20GLMeshAttributesInfo13RenderingAttsINS0_9ATT_NAMESEEC2Eb(ptr noundef nonnull align 1 dereferenceable(7) %0, i1 noundef zeroext %1) unnamed_addr #5 comdat align 2 {
  %3 = alloca ptr, align 8
  %4 = alloca i8, align 1
  store ptr %0, ptr %3, align 8
  %5 = zext i1 %1 to i8
  store i8 %5, ptr %4, align 1
  %6 = load ptr, ptr %3, align 8
  %7 = load i8, ptr %4, align 1
  %8 = trunc i8 %7 to i1
  call void @_ZN3vcg20GLMeshAttributesInfo13RenderingAttsINS0_9ATT_NAMESEE5resetEb(ptr noundef nonnull align 1 dereferenceable(7) %6, i1 noundef zeroext %8)
  ret void
}

; Function Attrs: mustprogress uwtable
define noundef zeroext i1 @_ZNK17MLRenderingAction22isRenderingDataEnabledEN3vcg20GLMeshAttributesInfo18PRIMITIVE_MODALITYENS1_9ATT_NAMESERK15MLRenderingData(ptr noundef nonnull align 8 dereferenceable(16) %0, i32 noundef %1, i32 %2, ptr noundef nonnull align 8 dereferenceable(40) %3) #5 align 2 personality ptr @__gxx_personality_v0 {
  %5 = alloca %"struct.vcg::GLMeshAttributesInfo::ATT_NAMES", align 4
  %6 = alloca ptr, align 8
  %7 = alloca i32, align 4
  %8 = alloca ptr, align 8
  %9 = alloca %"class.vcg::GLMeshAttributesInfo::RenderingAtts", align 1
  %10 = alloca ptr, align 8
  %11 = alloca i32, align 4
  %12 = getelementptr inbounds %"struct.vcg::GLMeshAttributesInfo::ATT_NAMES", ptr %5, i32 0, i32 0
  store i32 %2, ptr %12, align 4
  store ptr %0, ptr %6, align 8
  store i32 %1, ptr %7, align 4
  store ptr %3, ptr %8, align 8
  call void @_ZN3vcg20GLMeshAttributesInfo13RenderingAttsINS0_9ATT_NAMESEEC2Eb(ptr noundef nonnull align 1 dereferenceable(7) %9, i1 noundef zeroext false)
  %13 = load ptr, ptr %8, align 8
  %14 = load i32, ptr %7, align 4
  %15 = invoke noundef zeroext i1 @_ZNK3vcg11PerViewDataI18MLPerViewGLOptionsE3getENS_20GLMeshAttributesInfo18PRIMITIVE_MODALITYERNS3_13RenderingAttsINS3_9ATT_NAMESEEE(ptr noundef nonnull align 8 dereferenceable(40) %13, i32 noundef %14, ptr noundef nonnull align 1 dereferenceable(7) %9)
          to label %16 unwind label %23

16:                                               ; preds = %4
  %17 = invoke noundef i32 @_ZNK3vcg20GLMeshAttributesInfo9ATT_NAMEScvjEv(ptr noundef nonnull align 4 dereferenceable(4) %5)
          to label %18 unwind label %23

18:                                               ; preds = %16
  %19 = invoke noundef nonnull align 1 dereferenceable(1) ptr @_ZN3vcg20GLMeshAttributesInfo13RenderingAttsINS0_9ATT_NAMESEEixEj(ptr noundef nonnull align 1 dereferenceable(7) %9, i32 noundef %17)
          to label %20 unwind label %23

20:                                               ; preds = %18
  %21 = load i8, ptr %19, align 1
  %22 = trunc i8 %21 to i1
  call void @_ZN3vcg20GLMeshAttributesInfo13RenderingAttsINS0_9ATT_NAMESEED2Ev(ptr noundef nonnull align 1 dereferenceable(7) %9) #3
  ret i1 %22

23:                                               ; preds = %18, %16, %4
  %24 = landingpad { ptr, i32 }
          cleanup
  %25 = extractvalue { ptr, i32 } %24, 0
  store ptr %25, ptr %10, align 8
  %26 = extractvalue { ptr, i32 } %24, 1
  store i32 %26, ptr %11, align 4
  call void @_ZN3vcg20GLMeshAttributesInfo13RenderingAttsINS0_9ATT_NAMESEED2Ev(ptr noundef nonnull align 1 dereferenceable(7) %9) #3
  br label %27

27:                                               ; preds = %23
  %28 = load ptr, ptr %10, align 8
  %29 = load i32, ptr %11, align 4
  %30 = insertvalue { ptr, i32 } poison, ptr %28, 0
  %31 = insertvalue { ptr, i32 } %30, i32 %29, 1
  resume { ptr, i32 } %31
}