; Function Attrs: mustprogress uwtable
define noundef zeroext i1 @_ZNK17MLRenderingAction22isRenderingDataEnabledEN3vcg20GLMeshAttributesInfo18PRIMITIVE_MODALITYENS1_9ATT_NAMESERK15MLRenderingData(ptr nocapture nonnull readnone align 8 %0, i32 noundef %1, i32 %2, ptr nocapture noundef nonnull readonly align 8 dereferenceable(40) %3) local_unnamed_addr #9 align 2 personality ptr @__gxx_personality_v0 {
  %5 = alloca %"class.vcg::GLMeshAttributesInfo::RenderingAtts", align 1
  %6 = alloca %"class.vcg::GLMeshAttributesInfo::RenderingAtts", align 1
  call void @llvm.memset.p0.i64(ptr noundef nonnull align 1 dereferenceable(7) %6, i8 0, i64 7, i1 false)
  call void @llvm.lifetime.start.p0(i64 7, ptr nonnull %5)
  %7 = zext i32 %1 to i64
  %8 = getelementptr inbounds i8, ptr %3, i64 8
  %9 = getelementptr inbounds i8, ptr %3, i64 16
  %10 = load ptr, ptr %9, align 8
  %11 = load ptr, ptr %8, align 8
  %12 = ptrtoint ptr %10 to i64
  %13 = ptrtoint ptr %11 to i64
  %14 = sub i64 %12, %13
  %15 = sdiv exact i64 %14, 9
  %.not.i = icmp ugt i64 %15, %7
  br i1 %.not.i, label %16, label %.loopexit

16:                                               ; preds = %4
  %17 = getelementptr inbounds %"class.vcg::GLMeshAttributesInfo::InternalRendAtts", ptr %11, i64 %7
  tail call void @llvm.experimental.noalias.scope.decl(metadata !10)
  call void @llvm.memset.p0.i64(ptr noundef nonnull align 1 dereferenceable(7) %5, i8 0, i64 7, i1 false), !alias.scope !10
  br label %18

18:                                               ; preds = %18, %16
  %indvars.iv.i.i = phi i64 [ 0, %16 ], [ %indvars.iv.next.i.i, %18 ]
  %19 = getelementptr inbounds [9 x i8], ptr %17, i64 0, i64 %indvars.iv.i.i
  %20 = load i8, ptr %19, align 1, !noalias !10
  %21 = getelementptr inbounds [7 x i8], ptr %5, i64 0, i64 %indvars.iv.i.i
  %22 = and i8 %20, 1
  store i8 %22, ptr %21, align 1, !alias.scope !10
  %indvars.iv.next.i.i = add nuw nsw i64 %indvars.iv.i.i, 1
  %exitcond.not.i.i = icmp eq i64 %indvars.iv.next.i.i, 7
  br i1 %exitcond.not.i.i, label %_ZNK3vcg20GLMeshAttributesInfo16InternalRendAttscvNS0_13RenderingAttsINS0_9ATT_NAMESEEEEv.exit.i, label %18, !llvm.loop !13

_ZNK3vcg20GLMeshAttributesInfo16InternalRendAttscvNS0_13RenderingAttsINS0_9ATT_NAMESEEEEv.exit.i: ; preds = %18
  call void @llvm.memset.p0.i64(ptr noundef nonnull align 1 dereferenceable(7) %6, i8 0, i64 7, i1 false)
  br label %_ZN3vcg20GLMeshAttributesInfo13RenderingAttsINS0_9ATT_NAMESEEixEj.exit.i.i

_ZN3vcg20GLMeshAttributesInfo13RenderingAttsINS0_9ATT_NAMESEEixEj.exit.i.i: ; preds = %_ZN3vcg20GLMeshAttributesInfo13RenderingAttsINS0_9ATT_NAMESEEixEj.exit.i.i, %_ZNK3vcg20GLMeshAttributesInfo16InternalRendAttscvNS0_13RenderingAttsINS0_9ATT_NAMESEEEEv.exit.i
  %indvars.iv.i8.i = phi i64 [ 0, %_ZNK3vcg20GLMeshAttributesInfo16InternalRendAttscvNS0_13RenderingAttsINS0_9ATT_NAMESEEEEv.exit.i ], [ %indvars.iv.next.i9.i, %_ZN3vcg20GLMeshAttributesInfo13RenderingAttsINS0_9ATT_NAMESEEixEj.exit.i.i ]
  %23 = getelementptr inbounds [7 x i8], ptr %5, i64 0, i64 %indvars.iv.i8.i
  %24 = load i8, ptr %23, align 1
  %25 = and i8 %24, 1
  %26 = getelementptr inbounds [7 x i8], ptr %6, i64 0, i64 %indvars.iv.i8.i
  store i8 %25, ptr %26, align 1
  %indvars.iv.next.i9.i = add nuw nsw i64 %indvars.iv.i8.i, 1
  %exitcond.not.i10.i = icmp eq i64 %indvars.iv.next.i9.i, 7
  br i1 %exitcond.not.i10.i, label %.loopexit, label %_ZN3vcg20GLMeshAttributesInfo13RenderingAttsINS0_9ATT_NAMESEEixEj.exit.i.i, !llvm.loop !14

.loopexit:                                        ; preds = %_ZN3vcg20GLMeshAttributesInfo13RenderingAttsINS0_9ATT_NAMESEEixEj.exit.i.i, %4
  call void @llvm.lifetime.end.p0(i64 7, ptr nonnull %5)
  %.not.i3 = icmp ult i32 %2, 7
  br i1 %.not.i3, label %30, label %27

27:                                               ; preds = %.loopexit
  %28 = tail call ptr @__cxa_allocate_exception(i64 40) #21
  invoke void @_ZN3vcg20GLMeshAttributesInfo9ExceptionC2EPKc(ptr noundef nonnull align 8 dereferenceable(40) %28, ptr noundef nonnull @.str.6)
          to label %.noexc unwind label %.body

.noexc:                                           ; preds = %27
  tail call void @__cxa_throw(ptr nonnull %28, ptr nonnull @_ZTIN3vcg20GLMeshAttributesInfo9ExceptionE, ptr nonnull @_ZN3vcg20GLMeshAttributesInfo9ExceptionD2Ev) #25
  unreachable

.body:                                            ; preds = %27
  %29 = landingpad { ptr, i32 }
          cleanup
  tail call void @__cxa_free_exception(ptr %28) #21
  resume { ptr, i32 } %29

30:                                               ; preds = %.loopexit
  %31 = zext nneg i32 %2 to i64
  %32 = getelementptr inbounds [7 x i8], ptr %6, i64 0, i64 %31
  %33 = load i8, ptr %32, align 1
  %34 = and i8 %33, 1
  %35 = icmp ne i8 %34, 0
  ret i1 %35
}